target datalayout = "e-m:e-p270:32:32-p271:32:32-p272:64:64-i64:64-i128:128-f80:128-n8:16:32:64-S128"
target triple = "x86_64-unknown-linux-gnu"

%"class.std::chrono::duration.2" = type { i64 }
%"struct.google::SiteFlag" = type { ptr, ptr, i64, ptr }
%"class.google::LogMessageVoidify" = type { i8 }
%"class.google::LogMessage" = type { ptr, ptr, %"struct.google::LogMessageTime" }
%"struct.google::LogMessageTime" = type { %struct.tm, i64, i32, i64 }
%struct.tm = type { i32, i32, i32, i32, i32, i32, i32, i32, i32, i64, ptr }
%"class.proxygen::HTTP2PriorityQueue::Node" = type { %"class.proxygen::HTTP2PriorityQueueBase::BaseNode", %"class.folly::HHWheelTimerBase<std::chrono::duration<long, std::ratio<1, 1000>>>::Callback", ptr, ptr, i64, i16, ptr, i8, i8, i64, i64, %"class.std::__cxx11::list", %"struct.std::_List_iterator", %"class.boost::intrusive::list_member_hook", %"class.boost::intrusive::list" }
%"class.proxygen::HTTP2PriorityQueueBase::BaseNode" = type { ptr }
%"class.folly::HHWheelTimerBase<std::chrono::duration<long, std::ratio<1, 1000>>>::Callback" = type { ptr, %"class.boost::intrusive::list_base_hook", ptr, %"class.std::chrono::time_point", i32, %"class.std::shared_ptr" }
%"class.boost::intrusive::list_base_hook" = type { %"class.boost::intrusive::generic_hook" }
%"class.boost::intrusive::generic_hook" = type { %"struct.boost::intrusive::node_holder" }
%"struct.boost::intrusive::node_holder" = type { %"struct.boost::intrusive::list_node" }
%"struct.boost::intrusive::list_node" = type { ptr, ptr }
%"class.std::chrono::time_point" = type { %"class.std::chrono::duration" }
%"class.std::chrono::duration" = type { i64 }
%"class.std::shared_ptr" = type { %"class.std::__shared_ptr" }
%"class.std::__shared_ptr" = type { ptr, %"class.std::__shared_count" }
%"class.std::__shared_count" = type { ptr }
%"class.std::__cxx11::list" = type { %"class.std::__cxx11::_List_base" }
%"class.std::__cxx11::_List_base" = type { %"struct.std::__cxx11::_List_base<std::unique_ptr<proxygen::HTTP2PriorityQueue::Node>, std::allocator<std::unique_ptr<proxygen::HTTP2PriorityQueue::Node>>>::_List_impl" }
%"struct.std::__cxx11::_List_base<std::unique_ptr<proxygen::HTTP2PriorityQueue::Node>, std::allocator<std::unique_ptr<proxygen::HTTP2PriorityQueue::Node>>>::_List_impl" = type { %"struct.std::__detail::_List_node_header" }
%"struct.std::__detail::_List_node_header" = type { %"struct.std::__detail::_List_node_base", i64 }
%"struct.std::__detail::_List_node_base" = type { ptr, ptr }
%"struct.std::_List_iterator" = type { ptr }
%"class.boost::intrusive::list_member_hook" = type { %"class.boost::intrusive::generic_hook.0" }
%"class.boost::intrusive::generic_hook.0" = type { %"struct.boost::intrusive::list_node" }
%"class.boost::intrusive::list" = type { %"class.boost::intrusive::list_impl" }
%"class.boost::intrusive::list_impl" = type { %"struct.boost::intrusive::list_impl<boost::intrusive::mhtraits<proxygen::HTTP2PriorityQueue::Node, boost::intrusive::list_member_hook<boost::intrusive::link_mode<boost::intrusive::auto_unlink>>, &proxygen::HTTP2PriorityQueue::Node::enqueuedHook_>, unsigned long, false, void>::data_t" }
%"struct.boost::intrusive::list_impl<boost::intrusive::mhtraits<proxygen::HTTP2PriorityQueue::Node, boost::intrusive::list_member_hook<boost::intrusive::link_mode<boost::intrusive::auto_unlink>>, &proxygen::HTTP2PriorityQueue::Node::enqueuedHook_>, unsigned long, false, void>::data_t" = type { %"struct.boost::intrusive::list_impl<boost::intrusive::mhtraits<proxygen::HTTP2PriorityQueue::Node, boost::intrusive::list_member_hook<boost::intrusive::link_mode<boost::intrusive::auto_unlink>>, &proxygen::HTTP2PriorityQueue::Node::enqueuedHook_>, unsigned long, false, void>::root_plus_size" }
%"struct.boost::intrusive::list_impl<boost::intrusive::mhtraits<proxygen::HTTP2PriorityQueue::Node, boost::intrusive::list_member_hook<boost::intrusive::link_mode<boost::intrusive::auto_unlink>>, &proxygen::HTTP2PriorityQueue::Node::enqueuedHook_>, unsigned long, false, void>::root_plus_size" = type { %"struct.boost::intrusive::detail::default_header_holder" }
%"struct.boost::intrusive::detail::default_header_holder" = type { %"struct.boost::intrusive::list_node" }
%"class.proxygen::HTTP2PriorityQueue" = type { %"class.proxygen::HTTP2PriorityQueueBase", %"class.folly::F14FastMap", %"class.proxygen::HTTP2PriorityQueue::Node", i32, i64, i32, i32, %"class.folly::Optional", i8, %"class.proxygen::WheelTimerInstance", ptr }
%"class.proxygen::HTTP2PriorityQueueBase" = type { %"class.proxygen::HTTPCodec::PriorityQueue", i64 }
%"class.proxygen::HTTPCodec::PriorityQueue" = type { ptr }
%"class.folly::F14FastMap" = type { %"class.folly::F14ValueMap" }
%"class.folly::F14ValueMap" = type { %"class.folly::f14::detail::F14BasicMap" }
%"class.folly::f14::detail::F14BasicMap" = type { %"class.folly::f14::detail::F14Table" }
%"class.folly::f14::detail::F14Table" = type { ptr, %"struct.folly::f14::detail::SizeAndChunkShiftAndPackedBegin" }
%"struct.folly::f14::detail::SizeAndChunkShiftAndPackedBegin" = type { %"struct.folly::f14::detail::PackedSizeAndChunkShift", %"class.folly::f14::detail::PackedChunkItemPtr" }
%"struct.folly::f14::detail::PackedSizeAndChunkShift" = type { i64 }
%"class.folly::f14::detail::PackedChunkItemPtr" = type { i64 }
%"class.folly::Optional" = type { %"struct.folly::Optional<unsigned long>::StorageTriviallyDestructible" }
%"struct.folly::Optional<unsigned long>::StorageTriviallyDestructible" = type <{ %union.anon, i8, [7 x i8] }>
%union.anon = type { i64 }
%"class.proxygen::WheelTimerInstance" = type { ptr, %"class.std::chrono::duration.2" }

@_ZN8proxygen18HTTP2PriorityQueue14kNodeLifetime_E = global %"class.std::chrono::duration.2" { i64 30000 }, align 8
@.str = private unnamed_addr constant [144 x i8] c"generated/home/dtcxzyw/WorkSpace/Projects/compilers/llvm-opt-benchmark/bench/proxygen/proxygen/proxygen/lib/http/session/HTTP2PriorityQueue.cpp\00", align 1
@_ZN3fLI7FLAGS_vE = external global i32, align 4
@_ZZN8proxygen18HTTP2PriorityQueue17removeTransactionEPNS_22HTTP2PriorityQueueBase8BaseNodeEE8vlocal__ = internal global %"struct.google::SiteFlag" zeroinitializer, align 8
@.str.32 = private unnamed_addr constant [36 x i8] c"Deleting dangling node over max id=\00", align 1

; Function Attrs: mustprogress nounwind uwtable
define linkonce_odr noundef i64 @_ZNKSt6chrono8durationIlSt5ratioILl1ELl1000EEE5countEv(ptr noundef nonnull align 8 dereferenceable(8) %this) #4 comdat align 2 {
entry:
  %this.addr = alloca ptr, align 8
  store ptr %this, ptr %this.addr, align 8
  %this1 = load ptr, ptr %this.addr, align 8
  %__r = getelementptr inbounds %"class.std::chrono::duration.2", ptr %this1, i32 0, i32 0
  %0 = load i64, ptr %__r, align 8
  ret i64 %0
}

; Function Attrs: mustprogress nounwind uwtable
define linkonce_odr void @_ZN6google17LogMessageVoidifyanERSo(ptr noundef nonnull align 1 dereferenceable(1) %this, ptr noundef nonnull align 8 dereferenceable(8) %0) #4 comdat align 2 {
entry:
  %this.addr = alloca ptr, align 8
  %.addr = alloca ptr, align 8
  store ptr %this, ptr %this.addr, align 8
  store ptr %0, ptr %.addr, align 8
  ret void
}

; Function Attrs: mustprogress nounwind uwtable
define linkonce_odr noundef i64 @_ZNK8proxygen18HTTP2PriorityQueue4Node5getIDEv(ptr noundef nonnull align 8 dereferenceable(200) %this) #4 comdat align 2 {
entry:
  %this.addr = alloca ptr, align 8
  store ptr %this, ptr %this.addr, align 8
  %this1 = load ptr, ptr %this.addr, align 8
  %id_ = getelementptr inbounds %"class.proxygen::HTTP2PriorityQueue::Node", ptr %this1, i32 0, i32 4
  %0 = load i64, ptr %id_, align 8
  ret i64 %0
}

; Function Attrs: mustprogress nounwind uwtable
define linkonce_odr void @_ZN6google17LogMessageVoidifyC2Ev(ptr noundef nonnull align 1 dereferenceable(1) %this) unnamed_addr #4 comdat align 2 {
entry:
  %this.addr = alloca ptr, align 8
  store ptr %this, ptr %this.addr, align 8
  ret void
}

; Function Attrs: mustprogress nounwind uwtable
define linkonce_odr void @_ZN8proxygen18HTTP2PriorityQueue4Node16clearTransactionEv(ptr noundef nonnull align 8 dereferenceable(200) %this) #4 comdat align 2 {
entry:
  %this.addr = alloca ptr, align 8
  store ptr %this, ptr %this.addr, align 8
  %this1 = load ptr, ptr %this.addr, align 8
  %txn_ = getelementptr inbounds %"class.proxygen::HTTP2PriorityQueue::Node", ptr %this1, i32 0, i32 6
  store ptr null, ptr %txn_, align 8
  ret void
}

; Function Attrs: mustprogress uwtable
define linkonce_odr noundef zeroext i1 @_ZNK8proxygen18HTTP2PriorityQueue18allowDanglingNodesEv(ptr noundef nonnull align 8 dereferenceable(312) %this) #5 comdat align 2 {
entry:
  %this.addr = alloca ptr, align 8
  store ptr %this, ptr %this.addr, align 8
  %this1 = load ptr, ptr %this.addr, align 8
  %timeout_ = getelementptr inbounds %"class.proxygen::HTTP2PriorityQueue", ptr %this1, i32 0, i32 9
  %call = call noundef zeroext i1 @_ZNK8proxygen18WheelTimerInstancecvbEv(ptr noundef nonnull align 8 dereferenceable(16) %timeout_)
  br i1 %call, label %land.rhs, label %land.end

land.rhs:                                         ; preds = %entry
  %call2 = call noundef i64 @_ZNKSt6chrono8durationIlSt5ratioILl1ELl1000EEE5countEv(ptr noundef nonnull align 8 dereferenceable(8) @_ZN8proxygen18HTTP2PriorityQueue14kNodeLifetime_E)
  %cmp = icmp sgt i64 %call2, 0
  br label %land.end

land.end:                                         ; preds = %land.rhs, %entry
  %0 = phi i1 [ false, %entry ], [ %cmp, %land.rhs ]
  ret i1 %0
}

; Function Attrs: mustprogress nounwind uwtable
define noundef ptr @_ZN8proxygen18HTTP2PriorityQueue16nodeFromBaseNodeEPNS_22HTTP2PriorityQueueBase8BaseNodeE(ptr noundef %bnode) #4 align 2 {
entry:
  %bnode.addr = alloca ptr, align 8
  store ptr %bnode, ptr %bnode.addr, align 8
  %0 = load ptr, ptr %bnode.addr, align 8
  ret ptr %0
}

; Function Attrs: mustprogress uwtable
define void @_ZN8proxygen18HTTP2PriorityQueue17removeTransactionEPNS_22HTTP2PriorityQueueBase8BaseNodeE(ptr noundef nonnull align 8 dereferenceable(312) %this, ptr noundef %handle) unnamed_addr #5 align 2 personality ptr @__gxx_personality_v0 {
entry:
  %this.addr = alloca ptr, align 8
  %handle.addr = alloca ptr, align 8
  %node = alloca ptr, align 8
  %verbose_level__ = alloca i32, align 4
  %tmp = alloca i8, align 1
  %ref.tmp = alloca %"class.google::LogMessageVoidify", align 1
  %ref.tmp13 = alloca %"class.google::LogMessage", align 8
  %cleanup.cond = alloca i1, align 1
  %exn.slot = alloca ptr, align 8
  %ehselector.slot = alloca i32, align 4
  store ptr %this, ptr %this.addr, align 8
  store ptr %handle, ptr %handle.addr, align 8
  %this1 = load ptr, ptr %this.addr, align 8
  %0 = load ptr, ptr %handle.addr, align 8
  %call = call noundef ptr @_ZN8proxygen18HTTP2PriorityQueue16nodeFromBaseNodeEPNS_22HTTP2PriorityQueueBase8BaseNodeE(ptr noundef %0)
  store ptr %call, ptr %node, align 8
  %pendingWeightChange_ = getelementptr inbounds %"class.proxygen::HTTP2PriorityQueue", ptr %this1, i32 0, i32 8
  store i8 1, ptr %pendingWeightChange_, align 8
  %1 = load ptr, ptr %node, align 8
  %vtable = load ptr, ptr %1, align 8
  %vfn = getelementptr inbounds ptr, ptr %vtable, i64 2
  %2 = load ptr, ptr %vfn, align 8
  %call2 = call noundef zeroext i1 %2(ptr noundef nonnull align 8 dereferenceable(200) %1)
  br i1 %call2, label %if.then, label %if.end

if.then:                                          ; preds = %entry
  %3 = load ptr, ptr %handle.addr, align 8
  %vtable3 = load ptr, ptr %this1, align 8
  %vfn4 = getelementptr inbounds ptr, ptr %vtable3, i64 7
  %4 = load ptr, ptr %vfn4, align 8
  call void %4(ptr noundef nonnull align 8 dereferenceable(312) %this1, ptr noundef %3)
  br label %if.end

if.end:                                           ; preds = %if.then, %entry
  %call5 = call noundef zeroext i1 @_ZNK8proxygen18HTTP2PriorityQueue18allowDanglingNodesEv(ptr noundef nonnull align 8 dereferenceable(312) %this1)
  br i1 %call5, label %land.lhs.true, label %if.else

land.lhs.true:                                    ; preds = %if.end
  %numVirtualNodes_ = getelementptr inbounds %"class.proxygen::HTTP2PriorityQueue", ptr %this1, i32 0, i32 6
  %5 = load i32, ptr %numVirtualNodes_, align 4
  %maxVirtualNodes_ = getelementptr inbounds %"class.proxygen::HTTP2PriorityQueue", ptr %this1, i32 0, i32 5
  %6 = load i32, ptr %maxVirtualNodes_, align 8
  %cmp = icmp ult i32 %5, %6
  br i1 %cmp, label %if.then6, label %if.else

if.then6:                                         ; preds = %land.lhs.true
  %7 = load ptr, ptr %node, align 8
  call void @_ZN8proxygen18HTTP2PriorityQueue4Node16clearTransactionEv(ptr noundef nonnull align 8 dereferenceable(200) %7)
  %numVirtualNodes_7 = getelementptr inbounds %"class.proxygen::HTTP2PriorityQueue", ptr %this1, i32 0, i32 6
  %8 = load i32, ptr %numVirtualNodes_7, align 4
  %inc = add i32 %8, 1
  store i32 %inc, ptr %numVirtualNodes_7, align 4
  %9 = load ptr, ptr %node, align 8
  call void @_ZN8proxygen18HTTP2PriorityQueue22scheduleNodeExpirationEPNS0_4NodeE(ptr noundef nonnull align 8 dereferenceable(312) %this1, ptr noundef %9)
  br label %if.end26

if.else:                                          ; preds = %land.lhs.true, %if.end
  store i32 5, ptr %verbose_level__, align 4
  %10 = load ptr, ptr @_ZZN8proxygen18HTTP2PriorityQueue17removeTransactionEPNS_22HTTP2PriorityQueueBase8BaseNodeEE8vlocal__, align 8
  %cmp8 = icmp eq ptr %10, null
  store i1 false, ptr %cleanup.cond, align 1
  br i1 %cmp8, label %cond.true, label %cond.false

cond.true:                                        ; preds = %if.else
  %11 = load i32, ptr %verbose_level__, align 4
  %call9 = call noundef zeroext i1 @_ZN6google11InitVLOG3__EPNS_8SiteFlagEPiPKci(ptr noundef @_ZZN8proxygen18HTTP2PriorityQueue17removeTransactionEPNS_22HTTP2PriorityQueueBase8BaseNodeEE8vlocal__, ptr noundef @_ZN3fLI7FLAGS_vE, ptr noundef @.str, i32 noundef %11)
  br label %cond.end

cond.false:                                       ; preds = %if.else
  %12 = load ptr, ptr @_ZZN8proxygen18HTTP2PriorityQueue17removeTransactionEPNS_22HTTP2PriorityQueueBase8BaseNodeEE8vlocal__, align 8
  %13 = load i32, ptr %12, align 4
  %14 = load i32, ptr %verbose_level__, align 4
  %cmp10 = icmp sge i32 %13, %14
  br label %cond.end

cond.end:                                         ; preds = %cond.false, %cond.true
  %cond = phi i1 [ %call9, %cond.true ], [ %cmp10, %cond.false ]
  %frombool = zext i1 %cond to i8
  store i8 %frombool, ptr %tmp, align 1
  %15 = load i8, ptr %tmp, align 1
  %tobool = trunc i8 %15 to i1
  br i1 %tobool, label %cond.false12, label %cond.true11

cond.true11:                                      ; preds = %cond.end
  br label %cond.end22

cond.false12:                                     ; preds = %cond.end
  call void @_ZN6google17LogMessageVoidifyC2Ev(ptr noundef nonnull align 1 dereferenceable(1) %ref.tmp)
  call void @_ZN6google10LogMessageC1EPKci(ptr noundef nonnull align 8 dereferenceable(96) %ref.tmp13, ptr noundef @.str, i32 noundef 588)
  store i1 true, ptr %cleanup.cond, align 1
  %call14 = invoke noundef nonnull align 8 dereferenceable(8) ptr @_ZN6google10LogMessage6streamEv(ptr noundef nonnull align 8 dereferenceable(96) %ref.tmp13)
          to label %invoke.cont unwind label %lpad

invoke.cont:                                      ; preds = %cond.false12
  %call16 = invoke noundef nonnull align 8 dereferenceable(8) ptr @_ZStlsISt11char_traitsIcEERSt13basic_ostreamIcT_ES5_PKc(ptr noundef nonnull align 8 dereferenceable(8) %call14, ptr noundef @.str.32)
          to label %invoke.cont15 unwind label %lpad

invoke.cont15:                                    ; preds = %invoke.cont
  %16 = load ptr, ptr %node, align 8
  %call18 = invoke noundef i64 @_ZNK8proxygen18HTTP2PriorityQueue4Node5getIDEv(ptr noundef nonnull align 8 dereferenceable(200) %16)
          to label %invoke.cont17 unwind label %lpad

invoke.cont17:                                    ; preds = %invoke.cont15
  %call20 = invoke noundef nonnull align 8 dereferenceable(8) ptr @_ZNSolsEm(ptr noundef nonnull align 8 dereferenceable(8) %call16, i64 noundef %call18)
          to label %invoke.cont19 unwind label %lpad

invoke.cont19:                                    ; preds = %invoke.cont17
  invoke void @_ZN6google17LogMessageVoidifyanERSo(ptr noundef nonnull align 1 dereferenceable(1) %ref.tmp, ptr noundef nonnull align 8 dereferenceable(8) %call20)
          to label %invoke.cont21 unwind label %lpad

invoke.cont21:                                    ; preds = %invoke.cont19
  br label %cond.end22

cond.end22:                                       ; preds = %invoke.cont21, %cond.true11
  %cleanup.is_active = load i1, ptr %cleanup.cond, align 1
  br i1 %cleanup.is_active, label %cleanup.action, label %cleanup.done

cleanup.action:                                   ; preds = %cond.end22
  call void @_ZN6google10LogMessageD1Ev(ptr noundef nonnull align 8 dereferenceable(96) %ref.tmp13) #3
  br label %cleanup.done

cleanup.done:                                     ; preds = %cleanup.action, %cond.end22
  %17 = load ptr, ptr %node, align 8
  call void @_ZN8proxygen18HTTP2PriorityQueue4Node14removeFromTreeEv(ptr noundef nonnull align 8 dereferenceable(200) %17)
  br label %if.end26

lpad:                                             ; preds = %invoke.cont19, %invoke.cont17, %invoke.cont15, %invoke.cont, %cond.false12
  %18 = landingpad { ptr, i32 }
          cleanup
  %19 = extractvalue { ptr, i32 } %18, 0
  store ptr %19, ptr %exn.slot, align 8
  %20 = extractvalue { ptr, i32 } %18, 1
  store i32 %20, ptr %ehselector.slot, align 4
  %cleanup.is_active23 = load i1, ptr %cleanup.cond, align 1
  br i1 %cleanup.is_active23, label %cleanup.action24, label %cleanup.done25

cleanup.action24:                                 ; preds = %lpad
  call void @_ZN6google10LogMessageD1Ev(ptr noundef nonnull align 8 dereferenceable(96) %ref.tmp13) #3
  br label %cleanup.done25

cleanup.done25:                                   ; preds = %cleanup.action24, %lpad
  br label %eh.resume

if.end26:                                         ; preds = %cleanup.done, %if.then6
  ret void

eh.resume:                                        ; preds = %cleanup.done25
  %exn = load ptr, ptr %exn.slot, align 8
  %sel = load i32, ptr %ehselector.slot, align 4
  %lpad.val = insertvalue { ptr, i32 } poison, ptr %exn, 0
  %lpad.val27 = insertvalue { ptr, i32 } %lpad.val, i32 %sel, 1
  resume { ptr, i32 } %lpad.val27
}