; Function Attrs: mustprogress uwtable
define void @_ZN8proxygen18HTTP2PriorityQueue17removeTransactionEPNS_22HTTP2PriorityQueueBase8BaseNodeE(ptr noundef nonnull align 8 dereferenceable(312) %this, ptr noundef %handle) unnamed_addr #4 align 2 personality ptr @__gxx_personality_v0 {
entry:
  %ref.tmp13 = alloca %"class.google::LogMessage", align 8
  %pendingWeightChange_ = getelementptr inbounds i8, ptr %this, i64 280
  store i8 1, ptr %pendingWeightChange_, align 8
  %vtable = load ptr, ptr %handle, align 8
  %vfn = getelementptr inbounds i8, ptr %vtable, i64 16
  %0 = load ptr, ptr %vfn, align 8
  %call2 = tail call noundef zeroext i1 %0(ptr noundef nonnull align 8 dereferenceable(200) %handle)
  br i1 %call2, label %if.then, label %if.end

if.then:                                          ; preds = %entry
  %vtable3 = load ptr, ptr %this, align 8
  %vfn4 = getelementptr inbounds i8, ptr %vtable3, i64 56
  %1 = load ptr, ptr %vfn4, align 8
  tail call void %1(ptr noundef nonnull align 8 dereferenceable(312) %this, ptr noundef nonnull %handle)
  br label %if.end

if.end:                                           ; preds = %if.then, %entry
  %timeout_.i = getelementptr inbounds i8, ptr %this, i64 288
  %call.i = tail call noundef zeroext i1 @_ZNK8proxygen18WheelTimerInstancecvbEv(ptr noundef nonnull align 8 dereferenceable(16) %timeout_.i)
  %2 = load i64, ptr @_ZN8proxygen18HTTP2PriorityQueue14kNodeLifetime_E, align 8
  %cmp.i = icmp sgt i64 %2, 0
  %3 = select i1 %call.i, i1 %cmp.i, i1 false
  br i1 %3, label %land.lhs.true, label %if.else

land.lhs.true:                                    ; preds = %if.end
  %numVirtualNodes_ = getelementptr inbounds i8, ptr %this, i64 260
  %4 = load i32, ptr %numVirtualNodes_, align 4
  %maxVirtualNodes_ = getelementptr inbounds i8, ptr %this, i64 256
  %5 = load i32, ptr %maxVirtualNodes_, align 8
  %cmp = icmp ult i32 %4, %5
  br i1 %cmp, label %if.then6, label %if.else

if.then6:                                         ; preds = %land.lhs.true
  %txn_.i = getelementptr inbounds i8, ptr %handle, i64 104
  store ptr null, ptr %txn_.i, align 8
  %6 = load i32, ptr %numVirtualNodes_, align 4
  %inc = add i32 %6, 1
  store i32 %inc, ptr %numVirtualNodes_, align 4
  tail call void @_ZN8proxygen18HTTP2PriorityQueue22scheduleNodeExpirationEPNS0_4NodeE(ptr noundef nonnull align 8 dereferenceable(312) %this, ptr noundef nonnull %handle)
  br label %if.end26

if.else:                                          ; preds = %land.lhs.true, %if.end
  %7 = load ptr, ptr @_ZZN8proxygen18HTTP2PriorityQueue17removeTransactionEPNS_22HTTP2PriorityQueueBase8BaseNodeEE8vlocal__, align 8
  %cmp8 = icmp eq ptr %7, null
  br i1 %cmp8, label %cond.true, label %cond.end

cond.true:                                        ; preds = %if.else
  %call9 = tail call noundef zeroext i1 @_ZN6google11InitVLOG3__EPNS_8SiteFlagEPiPKci(ptr noundef nonnull @_ZZN8proxygen18HTTP2PriorityQueue17removeTransactionEPNS_22HTTP2PriorityQueueBase8BaseNodeEE8vlocal__, ptr noundef nonnull @_ZN3fLI7FLAGS_vE, ptr noundef nonnull @.str, i32 noundef 5)
  br i1 %call9, label %cond.false12, label %cleanup.done

cond.end:                                         ; preds = %if.else
  %8 = load i32, ptr %7, align 4
  %cmp10 = icmp sgt i32 %8, 4
  br i1 %cmp10, label %cond.false12, label %cleanup.done

cond.false12:                                     ; preds = %cond.true, %cond.end
  call void @_ZN6google10LogMessageC1EPKci(ptr noundef nonnull align 8 dereferenceable(96) %ref.tmp13, ptr noundef nonnull @.str, i32 noundef 588)
  %call14 = invoke noundef nonnull align 8 dereferenceable(8) ptr @_ZN6google10LogMessage6streamEv(ptr noundef nonnull align 8 dereferenceable(96) %ref.tmp13)
          to label %invoke.cont unwind label %lpad

invoke.cont:                                      ; preds = %cond.false12
  %call16 = invoke noundef nonnull align 8 dereferenceable(8) ptr @_ZStlsISt11char_traitsIcEERSt13basic_ostreamIcT_ES5_PKc(ptr noundef nonnull align 8 dereferenceable(8) %call14, ptr noundef nonnull @.str.32)
          to label %invoke.cont15 unwind label %lpad

invoke.cont15:                                    ; preds = %invoke.cont
  %id_.i = getelementptr inbounds i8, ptr %handle, i64 88
  %9 = load i64, ptr %id_.i, align 8
  %call20 = invoke noundef nonnull align 8 dereferenceable(8) ptr @_ZNSolsEm(ptr noundef nonnull align 8 dereferenceable(8) %call16, i64 noundef %9)
          to label %cleanup.action unwind label %lpad

cleanup.action:                                   ; preds = %invoke.cont15
  call void @_ZN6google10LogMessageD1Ev(ptr noundef nonnull align 8 dereferenceable(96) %ref.tmp13) #28
  br label %cleanup.done

cleanup.done:                                     ; preds = %cond.true, %cond.end, %cleanup.action
  call void @_ZN8proxygen18HTTP2PriorityQueue4Node14removeFromTreeEv(ptr noundef nonnull align 8 dereferenceable(200) %handle)
  br label %if.end26

lpad:                                             ; preds = %invoke.cont15, %invoke.cont, %cond.false12
  %10 = landingpad { ptr, i32 }
          cleanup
  call void @_ZN6google10LogMessageD1Ev(ptr noundef nonnull align 8 dereferenceable(96) %ref.tmp13) #28
  resume { ptr, i32 } %10

if.end26:                                         ; preds = %cleanup.done, %if.then6
  ret void
}